target datalayout = "e-m:e-p270:32:32-p271:32:32-p272:64:64-i64:64-i128:128-f80:128-n8:16:32:64-S128"
target triple = "x86_64-pc-linux-gnu"

%struct.asn1_string_st = type { i32, i32, ptr, i64 }
%struct.tm = type { i32, i32, i32, i32, i32, i32, i32, i32, i32, i64, ptr }

@.str = private unnamed_addr constant [125 x i8] c"generated/home/dtcxzyw/WorkSpace/Projects/compilers/llvm-opt-benchmark/bench/libquic/libquic/boringssl/crypto/asn1/a_gentm.c\00", align 1
@.str.1 = private unnamed_addr constant [26 x i8] c"%04d%02d%02d%02d%02d%02dZ\00", align 1

; Function Attrs: nounwind uwtable
define hidden ptr @ASN1_GENERALIZEDTIME_adj(ptr noundef %0, i64 noundef %1, i32 noundef %2, i64 noundef %3) #0 {
  %5 = alloca ptr, align 8
  %6 = alloca ptr, align 8
  %7 = alloca i64, align 8
  %8 = alloca i32, align 4
  %9 = alloca i64, align 8
  %10 = alloca ptr, align 8
  %11 = alloca ptr, align 8
  %12 = alloca %struct.tm, align 8
  %13 = alloca i64, align 8
  %14 = alloca i32, align 4
  store ptr %0, ptr %6, align 8, !tbaa !11
  store i64 %1, ptr %7, align 8, !tbaa !34
  store i32 %2, ptr %8, align 4, !tbaa !19
  store i64 %3, ptr %9, align 8, !tbaa !34
  call void @llvm.lifetime.start.p0(i64 8, ptr %10) #6
  call void @llvm.lifetime.start.p0(i64 8, ptr %11) #6
  call void @llvm.lifetime.start.p0(i64 56, ptr %12) #6
  call void @llvm.lifetime.start.p0(i64 8, ptr %13) #6
  store i64 20, ptr %13, align 8, !tbaa !34
  %15 = load ptr, ptr %6, align 8, !tbaa !11
  %16 = icmp eq ptr %15, null
  br i1 %16, label %17, label %19

17:                                               ; preds = %4
  %18 = call ptr @ASN1_STRING_type_new(i32 noundef 24)
  store ptr %18, ptr %6, align 8, !tbaa !11
  br label %19

19:                                               ; preds = %17, %4
  %20 = load ptr, ptr %6, align 8, !tbaa !11
  %21 = icmp eq ptr %20, null
  br i1 %21, label %22, label %23

22:                                               ; preds = %19
  store ptr null, ptr %5, align 8
  store i32 1, ptr %14, align 4
  br label %106

23:                                               ; preds = %19
  %24 = call ptr @OPENSSL_gmtime(ptr noundef %7, ptr noundef %12)
  store ptr %24, ptr %11, align 8, !tbaa !6
  %25 = load ptr, ptr %11, align 8, !tbaa !6
  %26 = icmp eq ptr %25, null
  br i1 %26, label %27, label %28

27:                                               ; preds = %23
  store ptr null, ptr %5, align 8
  store i32 1, ptr %14, align 4
  br label %106

28:                                               ; preds = %23
  %29 = load i32, ptr %8, align 4, !tbaa !19
  %30 = icmp ne i32 %29, 0
  br i1 %30, label %34, label %31

31:                                               ; preds = %28
  %32 = load i64, ptr %9, align 8, !tbaa !34
  %33 = icmp ne i64 %32, 0
  br i1 %33, label %34, label %42

34:                                               ; preds = %31, %28
  %35 = load ptr, ptr %11, align 8, !tbaa !6
  %36 = load i32, ptr %8, align 4, !tbaa !19
  %37 = load i64, ptr %9, align 8, !tbaa !34
  %38 = call i32 @OPENSSL_gmtime_adj(ptr noundef %35, i32 noundef %36, i64 noundef %37)
  %39 = icmp ne i32 %38, 0
  br i1 %39, label %41, label %40

40:                                               ; preds = %34
  store ptr null, ptr %5, align 8
  store i32 1, ptr %14, align 4
  br label %106

41:                                               ; preds = %34
  br label %42

42:                                               ; preds = %41, %31
  %43 = load ptr, ptr %6, align 8, !tbaa !11
  %44 = getelementptr inbounds nuw %struct.asn1_string_st, ptr %43, i32 0, i32 2
  %45 = load ptr, ptr %44, align 8, !tbaa !20
  store ptr %45, ptr %10, align 8, !tbaa !21
  %46 = load ptr, ptr %10, align 8, !tbaa !21
  %47 = icmp eq ptr %46, null
  br i1 %47, label %55, label %48

48:                                               ; preds = %42
  %49 = load ptr, ptr %6, align 8, !tbaa !11
  %50 = getelementptr inbounds nuw %struct.asn1_string_st, ptr %49, i32 0, i32 0
  %51 = load i32, ptr %50, align 8, !tbaa !18
  %52 = sext i32 %51 to i64
  %53 = load i64, ptr %13, align 8, !tbaa !34
  %54 = icmp ult i64 %52, %53
  br i1 %54, label %55, label %74

55:                                               ; preds = %48, %42
  %56 = load i64, ptr %13, align 8, !tbaa !34
  %57 = call noalias ptr @malloc(i64 noundef %56) #8
  store ptr %57, ptr %10, align 8, !tbaa !21
  %58 = load ptr, ptr %10, align 8, !tbaa !21
  %59 = icmp eq ptr %58, null
  br i1 %59, label %60, label %61

60:                                               ; preds = %55
  call void @ERR_put_error(i32 noundef 12, i32 noundef 0, i32 noundef 65, ptr noundef @.str, i32 noundef 242)
  store ptr null, ptr %5, align 8
  store i32 1, ptr %14, align 4
  br label %106

61:                                               ; preds = %55
  %62 = load ptr, ptr %6, align 8, !tbaa !11
  %63 = getelementptr inbounds nuw %struct.asn1_string_st, ptr %62, i32 0, i32 2
  %64 = load ptr, ptr %63, align 8, !tbaa !20
  %65 = icmp ne ptr %64, null
  br i1 %65, label %66, label %70

66:                                               ; preds = %61
  %67 = load ptr, ptr %6, align 8, !tbaa !11
  %68 = getelementptr inbounds nuw %struct.asn1_string_st, ptr %67, i32 0, i32 2
  %69 = load ptr, ptr %68, align 8, !tbaa !20
  call void @free(ptr noundef %69) #6
  br label %70

70:                                               ; preds = %66, %61
  %71 = load ptr, ptr %10, align 8, !tbaa !21
  %72 = load ptr, ptr %6, align 8, !tbaa !11
  %73 = getelementptr inbounds nuw %struct.asn1_string_st, ptr %72, i32 0, i32 2
  store ptr %71, ptr %73, align 8, !tbaa !20
  br label %74

74:                                               ; preds = %70, %48
  %75 = load ptr, ptr %10, align 8, !tbaa !21
  %76 = load i64, ptr %13, align 8, !tbaa !34
  %77 = load ptr, ptr %11, align 8, !tbaa !6
  %78 = getelementptr inbounds nuw %struct.tm, ptr %77, i32 0, i32 5
  %79 = load i32, ptr %78, align 4, !tbaa !25
  %80 = add nsw i32 %79, 1900
  %81 = load ptr, ptr %11, align 8, !tbaa !6
  %82 = getelementptr inbounds nuw %struct.tm, ptr %81, i32 0, i32 4
  %83 = load i32, ptr %82, align 8, !tbaa !26
  %84 = add nsw i32 %83, 1
  %85 = load ptr, ptr %11, align 8, !tbaa !6
  %86 = getelementptr inbounds nuw %struct.tm, ptr %85, i32 0, i32 3
  %87 = load i32, ptr %86, align 4, !tbaa !27
  %88 = load ptr, ptr %11, align 8, !tbaa !6
  %89 = getelementptr inbounds nuw %struct.tm, ptr %88, i32 0, i32 2
  %90 = load i32, ptr %89, align 8, !tbaa !28
  %91 = load ptr, ptr %11, align 8, !tbaa !6
  %92 = getelementptr inbounds nuw %struct.tm, ptr %91, i32 0, i32 1
  %93 = load i32, ptr %92, align 4, !tbaa !29
  %94 = load ptr, ptr %11, align 8, !tbaa !6
  %95 = getelementptr inbounds nuw %struct.tm, ptr %94, i32 0, i32 0
  %96 = load i32, ptr %95, align 8, !tbaa !23
  %97 = call i32 (ptr, i64, ptr, ...) @BIO_snprintf(ptr noundef %75, i64 noundef %76, ptr noundef @.str.1, i32 noundef %80, i32 noundef %84, i32 noundef %87, i32 noundef %90, i32 noundef %93, i32 noundef %96)
  %98 = load ptr, ptr %10, align 8, !tbaa !21
  %99 = call i64 @strlen(ptr noundef %98) #7
  %100 = trunc i64 %99 to i32
  %101 = load ptr, ptr %6, align 8, !tbaa !11
  %102 = getelementptr inbounds nuw %struct.asn1_string_st, ptr %101, i32 0, i32 0
  store i32 %100, ptr %102, align 8, !tbaa !18
  %103 = load ptr, ptr %6, align 8, !tbaa !11
  %104 = getelementptr inbounds nuw %struct.asn1_string_st, ptr %103, i32 0, i32 1
  store i32 24, ptr %104, align 4, !tbaa !13
  %105 = load ptr, ptr %6, align 8, !tbaa !11
  store ptr %105, ptr %5, align 8
  store i32 1, ptr %14, align 4
  br label %106

106:                                              ; preds = %74, %60, %40, %27, %22
  call void @llvm.lifetime.end.p0(i64 8, ptr %13) #6
  call void @llvm.lifetime.end.p0(i64 56, ptr %12) #6
  call void @llvm.lifetime.end.p0(i64 8, ptr %11) #6
  call void @llvm.lifetime.end.p0(i64 8, ptr %10) #6
  %107 = load ptr, ptr %5, align 8
  ret ptr %107
}