; Function Attrs: nounwind uwtable
define hidden ptr @ASN1_GENERALIZEDTIME_adj(ptr noundef captures(address_is_null, ret: address, provenance) %0, i64 noundef %1, i32 noundef %2, i64 noundef %3) local_unnamed_addr #0 {
  %5 = alloca i64, align 8
  %6 = alloca %struct.tm, align 8
  store i64 %1, ptr %5, align 8, !tbaa !29
  call void @llvm.lifetime.start.p0(i64 56, ptr nonnull %6) #6
  %7 = icmp eq ptr %0, null
  br i1 %7, label %8, label %.thread

8:                                                ; preds = %4
  %9 = tail call ptr @ASN1_STRING_type_new(i32 noundef 24) #6
  %10 = icmp eq ptr %9, null
  br i1 %10, label %52, label %.thread

.thread:                                          ; preds = %4, %8
  %.03140 = phi ptr [ %9, %8 ], [ %0, %4 ]
  %11 = call ptr @OPENSSL_gmtime(ptr noundef nonnull %5, ptr noundef nonnull %6) #6
  %12 = icmp eq ptr %11, null
  br i1 %12, label %52, label %13

13:                                               ; preds = %.thread
  %14 = icmp ne i32 %2, 0
  %15 = icmp ne i64 %3, 0
  %or.cond = or i1 %14, %15
  br i1 %or.cond, label %16, label %18

16:                                               ; preds = %13
  %17 = call i32 @OPENSSL_gmtime_adj(ptr noundef nonnull %11, i32 noundef %2, i64 noundef %3) #6
  %.not = icmp eq i32 %17, 0
  br i1 %.not, label %52, label %18

18:                                               ; preds = %16, %13
  %19 = getelementptr inbounds nuw i8, ptr %.03140, i64 8
  %20 = load ptr, ptr %19, align 8, !tbaa !15
  %21 = icmp eq ptr %20, null
  br i1 %21, label %25, label %22

22:                                               ; preds = %18
  %23 = load i32, ptr %.03140, align 8, !tbaa !14
  %24 = icmp ult i32 %23, 20
  br i1 %24, label %.thread42, label %34

25:                                               ; preds = %18
  %26 = call noalias dereferenceable_or_null(20) ptr @malloc(i64 noundef 20) #8
  %27 = icmp eq ptr %26, null
  br i1 %27, label %30, label %32

.thread42:                                        ; preds = %22
  %28 = call noalias dereferenceable_or_null(20) ptr @malloc(i64 noundef 20) #8
  %29 = icmp eq ptr %28, null
  br i1 %29, label %30, label %31

30:                                               ; preds = %.thread42, %25
  call void @ERR_put_error(i32 noundef 12, i32 noundef 0, i32 noundef 65, ptr noundef nonnull @.str, i32 noundef 242) #6
  br label %52

31:                                               ; preds = %.thread42
  call void @free(ptr noundef nonnull %20) #6
  br label %32

32:                                               ; preds = %25, %31
  %33 = phi ptr [ %28, %31 ], [ %26, %25 ]
  store ptr %33, ptr %19, align 8, !tbaa !15
  br label %34

34:                                               ; preds = %32, %22
  %.032 = phi ptr [ %33, %32 ], [ %20, %22 ]
  %35 = getelementptr inbounds nuw i8, ptr %11, i64 20
  %36 = load i32, ptr %35, align 4, !tbaa !22
  %37 = add nsw i32 %36, 1900
  %38 = getelementptr inbounds nuw i8, ptr %11, i64 16
  %39 = load i32, ptr %38, align 8, !tbaa !23
  %40 = add nsw i32 %39, 1
  %41 = getelementptr inbounds nuw i8, ptr %11, i64 12
  %42 = load i32, ptr %41, align 4, !tbaa !24
  %43 = getelementptr inbounds nuw i8, ptr %11, i64 8
  %44 = load i32, ptr %43, align 8, !tbaa !25
  %45 = getelementptr inbounds nuw i8, ptr %11, i64 4
  %46 = load i32, ptr %45, align 4, !tbaa !26
  %47 = load i32, ptr %11, align 8, !tbaa !20
  %48 = call i32 (ptr, i64, ptr, ...) @BIO_snprintf(ptr noundef nonnull %.032, i64 noundef 20, ptr noundef nonnull @.str.1, i32 noundef %37, i32 noundef %40, i32 noundef %42, i32 noundef %44, i32 noundef %46, i32 noundef %47) #6
  %49 = call i64 @strlen(ptr noundef nonnull dereferenceable(1) %.032) #7
  %50 = trunc i64 %49 to i32
  store i32 %50, ptr %.03140, align 8, !tbaa !14
  %51 = getelementptr inbounds nuw i8, ptr %.03140, i64 4
  store i32 24, ptr %51, align 4, !tbaa !6
  br label %52

52:                                               ; preds = %16, %.thread, %8, %34, %30
  %.0 = phi ptr [ null, %30 ], [ %.03140, %34 ], [ null, %8 ], [ null, %.thread ], [ null, %16 ]
  call void @llvm.lifetime.end.p0(i64 56, ptr nonnull %6) #6
  ret ptr %.0
}